; Function Attrs: nounwind uwtable
define hidden void @mi_process_info(ptr noundef writeonly captures(address_is_null) %0, ptr noundef writeonly captures(address_is_null) %1, ptr noundef writeonly captures(address_is_null) %2, ptr noundef writeonly captures(address_is_null) %3, ptr noundef writeonly captures(address_is_null) %4, ptr noundef writeonly captures(address_is_null) %5, ptr noundef writeonly captures(address_is_null) %6, ptr noundef writeonly captures(address_is_null) %7) local_unnamed_addr #2 {
  %9 = alloca %struct.mi_process_info_s, align 8
  call void @llvm.lifetime.start.p0(i64 64, ptr nonnull %9) #10
  %10 = getelementptr inbounds nuw i8, ptr %9, i64 8
  call void @llvm.memset.p0.i64(ptr noundef nonnull align 8 dereferenceable(64) %10, i8 0, i64 56, i1 false)
  %11 = load i64, ptr @mi_process_start, align 8, !tbaa !25
  %12 = tail call i64 @_mi_prim_clock_now() #8
  %13 = load i64, ptr @mi_clock_diff, align 8, !tbaa !25
  %14 = add i64 %11, %13
  %15 = sub i64 %12, %14
  store i64 %15, ptr %9, align 8, !tbaa !32
  %16 = load atomic i64, ptr getelementptr inbounds nuw (i8, ptr @_mi_stats_main, i64 120) monotonic, align 8
  %17 = getelementptr inbounds nuw i8, ptr %9, i64 40
  store i64 %16, ptr %17, align 8, !tbaa !34
  %18 = load atomic i64, ptr getelementptr inbounds nuw (i8, ptr @_mi_stats_main, i64 112) monotonic, align 16
  %19 = getelementptr inbounds nuw i8, ptr %9, i64 48
  store i64 %18, ptr %19, align 8, !tbaa !35
  %20 = getelementptr inbounds nuw i8, ptr %9, i64 24
  store i64 %16, ptr %20, align 8, !tbaa !36
  %21 = getelementptr inbounds nuw i8, ptr %9, i64 32
  store i64 %18, ptr %21, align 8, !tbaa !37
  %22 = getelementptr inbounds nuw i8, ptr %9, i64 8
  %23 = getelementptr inbounds nuw i8, ptr %9, i64 16
  %24 = getelementptr inbounds nuw i8, ptr %9, i64 56
  store i64 0, ptr %24, align 8, !tbaa !38
  call void @llvm.memset.p0.i64(ptr noundef nonnull align 8 dereferenceable(16) %22, i8 0, i64 16, i1 false)
  call void @_mi_prim_process_info(ptr noundef nonnull %9) #8
  %.not = icmp eq ptr %0, null
  br i1 %.not, label %28, label %25

25:                                               ; preds = %8
  %26 = load i64, ptr %9, align 8, !tbaa !32
  %27 = call i64 @llvm.smax.i64(i64 %26, i64 0)
  store i64 %27, ptr %0, align 8, !tbaa !25
  br label %28

28:                                               ; preds = %25, %8
  %.not24 = icmp eq ptr %1, null
  br i1 %.not24, label %32, label %29

29:                                               ; preds = %28
  %30 = load i64, ptr %22, align 8, !tbaa !39
  %31 = call i64 @llvm.smax.i64(i64 %30, i64 0)
  store i64 %31, ptr %1, align 8, !tbaa !25
  br label %32

32:                                               ; preds = %29, %28
  %.not25 = icmp eq ptr %2, null
  br i1 %.not25, label %36, label %33

33:                                               ; preds = %32
  %34 = load i64, ptr %23, align 8, !tbaa !40
  %35 = call i64 @llvm.smax.i64(i64 %34, i64 0)
  store i64 %35, ptr %2, align 8, !tbaa !25
  br label %36

36:                                               ; preds = %33, %32
  %.not26 = icmp eq ptr %3, null
  br i1 %.not26, label %39, label %37

37:                                               ; preds = %36
  %38 = load i64, ptr %20, align 8, !tbaa !36
  store i64 %38, ptr %3, align 8, !tbaa !25
  br label %39

39:                                               ; preds = %37, %36
  %.not27 = icmp eq ptr %4, null
  br i1 %.not27, label %42, label %40

40:                                               ; preds = %39
  %41 = load i64, ptr %21, align 8, !tbaa !37
  store i64 %41, ptr %4, align 8, !tbaa !25
  br label %42

42:                                               ; preds = %40, %39
  %.not28 = icmp eq ptr %5, null
  br i1 %.not28, label %45, label %43

43:                                               ; preds = %42
  %44 = load i64, ptr %17, align 8, !tbaa !34
  store i64 %44, ptr %5, align 8, !tbaa !25
  br label %45

45:                                               ; preds = %43, %42
  %.not29 = icmp eq ptr %6, null
  br i1 %.not29, label %48, label %46

46:                                               ; preds = %45
  %47 = load i64, ptr %19, align 8, !tbaa !35
  store i64 %47, ptr %6, align 8, !tbaa !25
  br label %48

48:                                               ; preds = %46, %45
  %.not30 = icmp eq ptr %7, null
  br i1 %.not30, label %51, label %49

49:                                               ; preds = %48
  %50 = load i64, ptr %24, align 8, !tbaa !38
  store i64 %50, ptr %7, align 8, !tbaa !25
  br label %51

51:                                               ; preds = %49, %48
  call void @llvm.lifetime.end.p0(i64 64, ptr nonnull %9) #10
  ret void
}